target datalayout = "e-m:e-p270:32:32-p271:32:32-p272:64:64-i64:64-i128:128-f80:128-n8:16:32:64-S128"
target triple = "x86_64-pc-linux-gnu"

%struct.Super_GateStruct_t_ = type { ptr, i32, [2 x i32], [6 x ptr], float, [6 x float], float, ptr }

@.str.33 = private unnamed_addr constant [3 x i8] c"%c\00", align 1
@.str.34 = private unnamed_addr constant [2 x i8] c"(\00", align 1
@.str.35 = private unnamed_addr constant [2 x i8] c",\00", align 1
@.str.36 = private unnamed_addr constant [2 x i8] c")\00", align 1

; Function Attrs: nounwind uwtable
define void @Super_WriteLibraryGateName_rec(ptr noundef %0, ptr noundef %1) #0 {
  %3 = alloca ptr, align 8
  %4 = alloca ptr, align 8
  %5 = alloca [10 x i8], align 1
  %6 = alloca i32, align 4
  %7 = alloca i32, align 4
  store ptr %0, ptr %3, align 8, !tbaa !55
  store ptr %1, ptr %4, align 8, !tbaa !12
  call void @llvm.lifetime.start.p0(i64 10, ptr %5) #12
  call void @llvm.lifetime.start.p0(i64 4, ptr %6) #12
  %8 = load ptr, ptr %3, align 8, !tbaa !55
  %9 = getelementptr inbounds nuw %struct.Super_GateStruct_t_, ptr %8, i32 0, i32 0
  %10 = load ptr, ptr %9, align 8, !tbaa !100
  %11 = icmp eq ptr %10, null
  br i1 %11, label %12, label %23

12:                                               ; preds = %2
  %13 = getelementptr inbounds [10 x i8], ptr %5, i64 0, i64 0
  %14 = load ptr, ptr %3, align 8, !tbaa !55
  %15 = getelementptr inbounds nuw %struct.Super_GateStruct_t_, ptr %14, i32 0, i32 1
  %16 = load i32, ptr %15, align 8
  %17 = lshr i32 %16, 8
  %18 = add nsw i32 97, %17
  %19 = call i32 (ptr, ptr, ...) @sprintf(ptr noundef %13, ptr noundef @.str.33, i32 noundef %18) #12
  %20 = load ptr, ptr %4, align 8, !tbaa !12
  %21 = getelementptr inbounds [10 x i8], ptr %5, i64 0, i64 0
  %22 = call ptr @strcat(ptr noundef %20, ptr noundef %21) #12
  store i32 1, ptr %7, align 4
  br label %60

23:                                               ; preds = %2
  %24 = load ptr, ptr %4, align 8, !tbaa !12
  %25 = load ptr, ptr %3, align 8, !tbaa !55
  %26 = getelementptr inbounds nuw %struct.Super_GateStruct_t_, ptr %25, i32 0, i32 0
  %27 = load ptr, ptr %26, align 8, !tbaa !100
  %28 = call ptr @Mio_GateReadName(ptr noundef %27)
  %29 = call ptr @strcat(ptr noundef %24, ptr noundef %28) #12
  %30 = load ptr, ptr %4, align 8, !tbaa !12
  %31 = call ptr @strcat(ptr noundef %30, ptr noundef @.str.34) #12
  store i32 0, ptr %6, align 4, !tbaa !8
  br label %32

32:                                               ; preds = %54, %23
  %33 = load i32, ptr %6, align 4, !tbaa !8
  %34 = load ptr, ptr %3, align 8, !tbaa !55
  %35 = getelementptr inbounds nuw %struct.Super_GateStruct_t_, ptr %34, i32 0, i32 1
  %36 = load i32, ptr %35, align 8
  %37 = lshr i32 %36, 2
  %38 = and i32 %37, 63
  %39 = icmp slt i32 %33, %38
  br i1 %39, label %40, label %57

40:                                               ; preds = %32
  %41 = load i32, ptr %6, align 4, !tbaa !8
  %42 = icmp ne i32 %41, 0
  br i1 %42, label %43, label %46

43:                                               ; preds = %40
  %44 = load ptr, ptr %4, align 8, !tbaa !12
  %45 = call ptr @strcat(ptr noundef %44, ptr noundef @.str.35) #12
  br label %46

46:                                               ; preds = %43, %40
  %47 = load ptr, ptr %3, align 8, !tbaa !55
  %48 = getelementptr inbounds nuw %struct.Super_GateStruct_t_, ptr %47, i32 0, i32 3
  %49 = load i32, ptr %6, align 4, !tbaa !8
  %50 = sext i32 %49 to i64
  %51 = getelementptr inbounds [6 x ptr], ptr %48, i64 0, i64 %50
  %52 = load ptr, ptr %51, align 8, !tbaa !55
  %53 = load ptr, ptr %4, align 8, !tbaa !12
  call void @Super_WriteLibraryGateName_rec(ptr noundef %52, ptr noundef %53)
  br label %54

54:                                               ; preds = %46
  %55 = load i32, ptr %6, align 4, !tbaa !8
  %56 = add nsw i32 %55, 1
  store i32 %56, ptr %6, align 4, !tbaa !8
  br label %32, !llvm.loop !109

57:                                               ; preds = %32
  %58 = load ptr, ptr %4, align 8, !tbaa !12
  %59 = call ptr @strcat(ptr noundef %58, ptr noundef @.str.36) #12
  store i32 0, ptr %7, align 4
  br label %60

60:                                               ; preds = %57, %12
  call void @llvm.lifetime.end.p0(i64 4, ptr %6) #12
  call void @llvm.lifetime.end.p0(i64 10, ptr %5) #12
  %61 = load i32, ptr %7, align 4
  switch i32 %61, label %63 [
    i32 0, label %62
    i32 1, label %62
  ]

62:                                               ; preds = %60, %60
  ret void

63:                                               ; preds = %60
  unreachable
}