; Function Attrs: nounwind uwtable
define void @Super_WriteLibraryGateName_rec(ptr noundef readonly captures(none) %0, ptr noundef %1) local_unnamed_addr #0 {
  %3 = alloca [10 x i8], align 1
  call void @llvm.lifetime.start.p0(i64 10, ptr nonnull %3) #20
  %4 = load ptr, ptr %0, align 8, !tbaa !64
  %5 = icmp eq ptr %4, null
  br i1 %5, label %6, label %12

6:                                                ; preds = %2
  %7 = getelementptr inbounds nuw i8, ptr %0, i64 8
  %8 = load i32, ptr %7, align 8
  %9 = lshr i32 %8, 8
  %10 = trunc i32 %9 to i8
  %char = add i8 %10, 97
  store i8 %char, ptr %3, align 1
  %nul = getelementptr inbounds nuw i8, ptr %3, i64 1
  store i8 0, ptr %nul, align 1
  %11 = call ptr @strcat(ptr noundef nonnull dereferenceable(1) %1, ptr noundef nonnull dereferenceable(1) %3) #20
  br label %29

12:                                               ; preds = %2
  %13 = tail call ptr @Mio_GateReadName(ptr noundef nonnull %4) #20
  %14 = tail call ptr @strcat(ptr noundef nonnull dereferenceable(1) %1, ptr noundef nonnull dereferenceable(1) %13) #20
  %strlen = tail call i64 @strlen(ptr nonnull dereferenceable(1) %1)
  %endptr = getelementptr inbounds i8, ptr %1, i64 %strlen
  store i16 40, ptr %endptr, align 1
  %15 = getelementptr inbounds nuw i8, ptr %0, i64 8
  %16 = load i32, ptr %15, align 8
  %17 = and i32 %16, 252
  %.not20 = icmp eq i32 %17, 0
  br i1 %.not20, label %._crit_edge, label %.lr.ph

.lr.ph:                                           ; preds = %12
  %18 = getelementptr inbounds nuw i8, ptr %0, i64 24
  br label %19

19:                                               ; preds = %.lr.ph, %21
  %indvars.iv = phi i64 [ 0, %.lr.ph ], [ %indvars.iv.next, %21 ]
  %.not = icmp eq i64 %indvars.iv, 0
  br i1 %.not, label %21, label %20

20:                                               ; preds = %19
  %strlen17 = tail call i64 @strlen(ptr nonnull dereferenceable(1) %1)
  %endptr18 = getelementptr inbounds i8, ptr %1, i64 %strlen17
  store i16 44, ptr %endptr18, align 1
  br label %21

21:                                               ; preds = %20, %19
  %22 = getelementptr inbounds nuw [6 x ptr], ptr %18, i64 0, i64 %indvars.iv
  %23 = load ptr, ptr %22, align 8, !tbaa !42
  tail call void @Super_WriteLibraryGateName_rec(ptr noundef %23, ptr noundef nonnull %1)
  %indvars.iv.next = add nuw nsw i64 %indvars.iv, 1
  %24 = load i32, ptr %15, align 8
  %25 = lshr i32 %24, 2
  %26 = and i32 %25, 63
  %27 = zext nneg i32 %26 to i64
  %28 = icmp samesign ult i64 %indvars.iv.next, %27
  br i1 %28, label %19, label %._crit_edge, !llvm.loop !106

._crit_edge:                                      ; preds = %21, %12
  %strlen15 = tail call i64 @strlen(ptr nonnull dereferenceable(1) %1)
  %endptr16 = getelementptr inbounds i8, ptr %1, i64 %strlen15
  store i16 41, ptr %endptr16, align 1
  br label %29

29:                                               ; preds = %._crit_edge, %6
  call void @llvm.lifetime.end.p0(i64 10, ptr nonnull %3) #20
  ret void
}